; Function Attrs: mustprogress uwtable
define hidden void @_ZN4cvc58internal6theory11quantifiers18AlphaEquivalenceDbC2EPNS_7context7ContextEPNS0_4expr12TermCanonizeEb(ptr noundef nonnull align 8 dereferenceable(232) %this, ptr noundef %c, ptr noundef %tc, i1 noundef zeroext %sortCommChildren) unnamed_addr #3 align 2 personality ptr @__gxx_personality_v0 {
entry:
  store ptr %c, ptr %this, align 8
  %0 = getelementptr inbounds i8, ptr %this, i64 16
  store i32 0, ptr %0, align 8
  %_M_parent.i.i.i.i.i.i = getelementptr inbounds i8, ptr %this, i64 24
  store ptr null, ptr %_M_parent.i.i.i.i.i.i, align 8
  %_M_left.i.i.i.i.i.i = getelementptr inbounds i8, ptr %this, i64 32
  store ptr %0, ptr %_M_left.i.i.i.i.i.i, align 8
  %_M_right.i.i.i.i.i.i = getelementptr inbounds i8, ptr %this, i64 40
  store ptr %0, ptr %_M_right.i.i.i.i.i.i, align 8
  %_M_node_count.i.i.i.i.i.i = getelementptr inbounds i8, ptr %this, i64 48
  store i64 0, ptr %_M_node_count.i.i.i.i.i.i, align 8
  %d_quant.i = getelementptr inbounds i8, ptr %this, i64 56
  invoke void @_ZN4cvc57context10ContextObjC2EPNS0_7ContextE(ptr noundef nonnull align 8 dereferenceable(40) %d_quant.i, ptr noundef %c)
          to label %_ZN4cvc58internal6theory11quantifiers24AlphaEquivalenceTypeNodeC2EPNS_7context7ContextE.exit unwind label %lpad.i

lpad.i:                                           ; preds = %entry
  %1 = landingpad { ptr, i32 }
          cleanup
  %d_ae_typ_trie = getelementptr inbounds i8, ptr %this, i64 8
  tail call void @_ZNSt3mapISt4pairIN4cvc58internal8TypeNodeEmESt10unique_ptrINS2_6theory11quantifiers24AlphaEquivalenceTypeNodeESt14default_deleteIS8_EESt4lessIS4_ESaIS0_IKS4_SB_EEED2Ev(ptr noundef nonnull align 8 dereferenceable(48) %d_ae_typ_trie) #20
  resume { ptr, i32 } %1

_ZN4cvc58internal6theory11quantifiers24AlphaEquivalenceTypeNodeC2EPNS_7context7ContextE.exit: ; preds = %entry
  %frombool = zext i1 %sortCommChildren to i8
  store ptr getelementptr inbounds ({ [6 x ptr] }, ptr @_ZTVN4cvc57context9CDHashMapINS_8internal12NodeTemplateILb1EEES4_St4hashIS4_EEE, i64 0, i32 0, i64 2), ptr %d_quant.i, align 8
  %d_map.i.i = getelementptr inbounds i8, ptr %this, i64 96
  %2 = getelementptr inbounds i8, ptr %this, i64 128
  store i64 0, ptr %2, align 8
  %_M_single_bucket.i.i.i.i = getelementptr inbounds i8, ptr %this, i64 144
  store ptr %_M_single_bucket.i.i.i.i, ptr %d_map.i.i, align 8
  %_M_bucket_count.i.i.i.i = getelementptr inbounds i8, ptr %this, i64 104
  store i64 1, ptr %_M_bucket_count.i.i.i.i, align 8
  %_M_before_begin.i.i.i.i = getelementptr inbounds i8, ptr %this, i64 112
  tail call void @llvm.memset.p0.i64(ptr noundef nonnull align 8 dereferenceable(16) %_M_before_begin.i.i.i.i, i8 0, i64 16, i1 false)
  store float 1.000000e+00, ptr %2, align 8
  %_M_next_resize.i.i.i.i.i = getelementptr inbounds i8, ptr %this, i64 136
  %d_context.i.i = getelementptr inbounds i8, ptr %this, i64 160
  tail call void @llvm.memset.p0.i64(ptr noundef nonnull align 8 dereferenceable(24) %_M_next_resize.i.i.i.i.i, i8 0, i64 24, i1 false)
  store ptr %c, ptr %d_context.i.i, align 8
  %d_tc = getelementptr inbounds i8, ptr %this, i64 168
  store ptr %tc, ptr %d_tc, align 8
  %d_sortCommutativeOpChildren = getelementptr inbounds i8, ptr %this, i64 176
  store i8 %frombool, ptr %d_sortCommutativeOpChildren, align 8
  %3 = getelementptr inbounds i8, ptr %this, i64 192
  store i32 0, ptr %3, align 8
  %_M_parent.i.i.i.i.i = getelementptr inbounds i8, ptr %this, i64 200
  store ptr null, ptr %_M_parent.i.i.i.i.i, align 8
  %_M_left.i.i.i.i.i = getelementptr inbounds i8, ptr %this, i64 208
  store ptr %3, ptr %_M_left.i.i.i.i.i, align 8
  %_M_right.i.i.i.i.i = getelementptr inbounds i8, ptr %this, i64 216
  store ptr %3, ptr %_M_right.i.i.i.i.i, align 8
  %_M_node_count.i.i.i.i.i = getelementptr inbounds i8, ptr %this, i64 224
  store i64 0, ptr %_M_node_count.i.i.i.i.i, align 8
  ret void
}